; ModuleID = '12/1559.c'
source_filename = "12/1559.c"
target datalayout = "e-m:e-p270:32:32-p271:32:32-p272:64:64-i64:64-f80:128-n8:16:32:64-S128"
target triple = "x86_64-pc-linux-gnu"

@.str = private unnamed_addr constant [3 x i8] c"%d\00", align 1
@.str.1 = private unnamed_addr constant [4 x i8] c"%d\0A\00", align 1

; Function Attrs: noinline nounwind uwtable
define dso_local i32 @main() #0 {
  %1 = alloca i32, align 4
  %2 = alloca [16 x [16 x i32]], align 16
  %3 = alloca i32, align 4
  %4 = alloca i32, align 4
  %5 = alloca i32, align 4
  %6 = alloca [16 x i32], align 16
  %7 = alloca i32, align 4
  %8 = alloca i32, align 4
  %9 = alloca i32, align 4
  store i32 0, i32* %1, align 4
  %10 = bitcast [16 x i32]* %6 to i8*
  call void @llvm.memset.p0i8.i64(i8* align 16 %10, i8 0, i64 64, i1 false)
  store i32 0, i32* %3, align 4
  br label %11

11:                                               ; preds = %53, %0
  %12 = load i32, i32* %3, align 4
  %13 = add nsw i32 %12, 1
  store i32 %13, i32* %3, align 4
  store i32 0, i32* %4, align 4
  br label %14

14:                                               ; preds = %50, %11
  %15 = load i32, i32* %4, align 4
  %16 = add nsw i32 %15, 1
  store i32 %16, i32* %4, align 4
  %17 = load i32, i32* %3, align 4
  %18 = sext i32 %17 to i64
  %19 = getelementptr inbounds [16 x [16 x i32]], [16 x [16 x i32]]* %2, i64 0, i64 %18
  %20 = load i32, i32* %4, align 4
  %21 = sext i32 %20 to i64
  %22 = getelementptr inbounds [16 x i32], [16 x i32]* %19, i64 0, i64 %21
  %23 = call i32 (i8*, ...) @__isoc99_scanf(i8* getelementptr inbounds ([3 x i8], [3 x i8]* @.str, i64 0, i64 0), i32* %22)
  %24 = load i32, i32* %3, align 4
  %25 = sext i32 %24 to i64
  %26 = getelementptr inbounds [16 x i32], [16 x i32]* %6, i64 0, i64 %25
  %27 = load i32, i32* %26, align 4
  %28 = add nsw i32 %27, 1
  %29 = load i32, i32* %3, align 4
  %30 = sext i32 %29 to i64
  %31 = getelementptr inbounds [16 x i32], [16 x i32]* %6, i64 0, i64 %30
  store i32 %28, i32* %31, align 4
  br label %32

32:                                               ; preds = %14
  %33 = load i32, i32* %3, align 4
  %34 = sext i32 %33 to i64
  %35 = getelementptr inbounds [16 x [16 x i32]], [16 x [16 x i32]]* %2, i64 0, i64 %34
  %36 = load i32, i32* %4, align 4
  %37 = sext i32 %36 to i64
  %38 = getelementptr inbounds [16 x i32], [16 x i32]* %35, i64 0, i64 %37
  %39 = load i32, i32* %38, align 4
  %40 = icmp ne i32 %39, 0
  br i1 %40, label %41, label %50

41:                                               ; preds = %32
  %42 = load i32, i32* %3, align 4
  %43 = sext i32 %42 to i64
  %44 = getelementptr inbounds [16 x [16 x i32]], [16 x [16 x i32]]* %2, i64 0, i64 %43
  %45 = load i32, i32* %4, align 4
  %46 = sext i32 %45 to i64
  %47 = getelementptr inbounds [16 x i32], [16 x i32]* %44, i64 0, i64 %46
  %48 = load i32, i32* %47, align 4
  %49 = icmp ne i32 %48, -1
  br label %50

50:                                               ; preds = %41, %32
  %51 = phi i1 [ false, %32 ], [ %49, %41 ]
  br i1 %51, label %14, label %52

52:                                               ; preds = %50
  br label %53

53:                                               ; preds = %52
  %54 = load i32, i32* %3, align 4
  %55 = sext i32 %54 to i64
  %56 = getelementptr inbounds [16 x [16 x i32]], [16 x [16 x i32]]* %2, i64 0, i64 %55
  %57 = getelementptr inbounds [16 x i32], [16 x i32]* %56, i64 0, i64 1
  %58 = load i32, i32* %57, align 4
  %59 = icmp ne i32 %58, -1
  br i1 %59, label %11, label %60

60:                                               ; preds = %53
  %61 = load i32, i32* %3, align 4
  store i32 %61, i32* %8, align 4
  store i32 1, i32* %3, align 4
  br label %62

62:                                               ; preds = %127, %60
  %63 = load i32, i32* %3, align 4
  %64 = load i32, i32* %8, align 4
  %65 = icmp slt i32 %63, %64
  br i1 %65, label %66, label %130

66:                                               ; preds = %62
  store i32 0, i32* %9, align 4
  store i32 2, i32* %4, align 4
  br label %67

67:                                               ; preds = %121, %66
  %68 = load i32, i32* %4, align 4
  %69 = load i32, i32* %3, align 4
  %70 = sext i32 %69 to i64
  %71 = getelementptr inbounds [16 x i32], [16 x i32]* %6, i64 0, i64 %70
  %72 = load i32, i32* %71, align 4
  %73 = icmp sle i32 %68, %72
  br i1 %73, label %74, label %124

74:                                               ; preds = %67
  store i32 1, i32* %5, align 4
  br label %75

75:                                               ; preds = %117, %74
  %76 = load i32, i32* %5, align 4
  %77 = load i32, i32* %4, align 4
  %78 = icmp slt i32 %76, %77
  br i1 %78, label %79, label %120

79:                                               ; preds = %75
  %80 = load i32, i32* %3, align 4
  %81 = sext i32 %80 to i64
  %82 = getelementptr inbounds [16 x [16 x i32]], [16 x [16 x i32]]* %2, i64 0, i64 %81
  %83 = load i32, i32* %4, align 4
  %84 = sext i32 %83 to i64
  %85 = getelementptr inbounds [16 x i32], [16 x i32]* %82, i64 0, i64 %84
  %86 = load i32, i32* %85, align 4
  %87 = load i32, i32* %3, align 4
  %88 = sext i32 %87 to i64
  %89 = getelementptr inbounds [16 x [16 x i32]], [16 x [16 x i32]]* %2, i64 0, i64 %88
  %90 = load i32, i32* %5, align 4
  %91 = sext i32 %90 to i64
  %92 = getelementptr inbounds [16 x i32], [16 x i32]* %89, i64 0, i64 %91
  %93 = load i32, i32* %92, align 4
  %94 = mul nsw i32 2, %93
  %95 = icmp eq i32 %86, %94
  br i1 %95, label %113, label %96

96:                                               ; preds = %79
  %97 = load i32, i32* %3, align 4
  %98 = sext i32 %97 to i64
  %99 = getelementptr inbounds [16 x [16 x i32]], [16 x [16 x i32]]* %2, i64 0, i64 %98
  %100 = load i32, i32* %4, align 4
  %101 = sext i32 %100 to i64
  %102 = getelementptr inbounds [16 x i32], [16 x i32]* %99, i64 0, i64 %101
  %103 = load i32, i32* %102, align 4
  %104 = mul nsw i32 %103, 2
  %105 = load i32, i32* %3, align 4
  %106 = sext i32 %105 to i64
  %107 = getelementptr inbounds [16 x [16 x i32]], [16 x [16 x i32]]* %2, i64 0, i64 %106
  %108 = load i32, i32* %5, align 4
  %109 = sext i32 %108 to i64
  %110 = getelementptr inbounds [16 x i32], [16 x i32]* %107, i64 0, i64 %109
  %111 = load i32, i32* %110, align 4
  %112 = icmp eq i32 %104, %111
  br i1 %112, label %113, label %116

113:                                              ; preds = %96, %79
  %114 = load i32, i32* %9, align 4
  %115 = add nsw i32 %114, 1
  store i32 %115, i32* %9, align 4
  br label %116

116:                                              ; preds = %113, %96
  br label %117

117:                                              ; preds = %116
  %118 = load i32, i32* %5, align 4
  %119 = add nsw i32 %118, 1
  store i32 %119, i32* %5, align 4
  br label %75

120:                                              ; preds = %75
  br label %121

121:                                              ; preds = %120
  %122 = load i32, i32* %4, align 4
  %123 = add nsw i32 %122, 1
  store i32 %123, i32* %4, align 4
  br label %67

124:                                              ; preds = %67
  %125 = load i32, i32* %9, align 4
  %126 = call i32 (i8*, ...) @printf(i8* getelementptr inbounds ([4 x i8], [4 x i8]* @.str.1, i64 0, i64 0), i32 %125)
  br label %127

127:                                              ; preds = %124
  %128 = load i32, i32* %3, align 4
  %129 = add nsw i32 %128, 1
  store i32 %129, i32* %3, align 4
  br label %62

130:                                              ; preds = %62
  %131 = load i32, i32* %1, align 4
  ret i32 %131
}

; Function Attrs: argmemonly nounwind willreturn
declare void @llvm.memset.p0i8.i64(i8* nocapture writeonly, i8, i64, i1 immarg) #1

declare dso_local i32 @__isoc99_scanf(i8*, ...) #2

declare dso_local i32 @printf(i8*, ...) #2


!llvm.module.flags = !{!0}
!llvm.ident = !{!1}

!0 = !{i32 1, !"wchar_size", i32 4}
!1 = !{!"clang version 10.0.0-4ubuntu1 "}
